target datalayout = "e-m:e-p270:32:32-p271:32:32-p272:64:64-i64:64-i128:128-f80:128-n8:16:32:64-S128"
target triple = "x86_64-unknown-linux-gnu"

%"class.icu_75::MessageFormat::PluralSelectorProvider" = type <{ %"class.icu_75::PluralFormat::PluralSelector", ptr, ptr, i32, [4 x i8] }>
%"class.icu_75::PluralFormat::PluralSelector" = type { ptr }

; Function Attrs: mustprogress nounwind uwtable
define void @_ZN6icu_7513MessageFormat22PluralSelectorProviderD2Ev(ptr noundef nonnull align 8 dereferenceable(28) %this) unnamed_addr #0 align 2 {
entry:
  %this.addr = alloca ptr, align 8
  store ptr %this, ptr %this.addr, align 8
  %this1 = load ptr, ptr %this.addr, align 8
  store ptr getelementptr inbounds ({ [5 x ptr] }, ptr @_ZTVN6icu_7513MessageFormat22PluralSelectorProviderE, i32 0, i32 0, i32 2), ptr %this1, align 8
  %rules = getelementptr inbounds %"class.icu_75::MessageFormat::PluralSelectorProvider", ptr %this1, i32 0, i32 2
  %0 = load ptr, ptr %rules, align 8
  %isnull = icmp eq ptr %0, null
  br i1 %isnull, label %delete.end, label %delete.notnull

delete.notnull:                                   ; preds = %entry
  %vtable = load ptr, ptr %0, align 8
  %vfn = getelementptr inbounds ptr, ptr %vtable, i64 1
  %1 = load ptr, ptr %vfn, align 8
  call void %1(ptr noundef nonnull align 8 dereferenceable(28) %0) #11
  br label %delete.end

delete.end:                                       ; preds = %delete.notnull, %entry
  call void @_ZN6icu_7512PluralFormat14PluralSelectorD2Ev(ptr noundef nonnull align 8 dereferenceable(8) %this1) #11
  ret void
}