; Function Attrs: mustprogress nounwind uwtable
define void @_ZN6icu_7513MessageFormat22PluralSelectorProviderD2Ev(ptr noundef nonnull align 8 dereferenceable(28) %this) unnamed_addr #0 align 2 {
entry:
  store ptr getelementptr inbounds ({ [5 x ptr] }, ptr @_ZTVN6icu_7513MessageFormat22PluralSelectorProviderE, i64 0, i32 0, i64 2), ptr %this, align 8
  %rules = getelementptr inbounds i8, ptr %this, i64 16
  %0 = load ptr, ptr %rules, align 8
  %isnull = icmp eq ptr %0, null
  br i1 %isnull, label %delete.end, label %delete.notnull

delete.notnull:                                   ; preds = %entry
  %vtable = load ptr, ptr %0, align 8
  %vfn = getelementptr inbounds i8, ptr %vtable, i64 8
  %1 = load ptr, ptr %vfn, align 8
  tail call void %1(ptr noundef nonnull align 8 dereferenceable(28) %0) #19
  br label %delete.end

delete.end:                                       ; preds = %delete.notnull, %entry
  tail call void @_ZN6icu_7512PluralFormat14PluralSelectorD2Ev(ptr noundef nonnull align 8 dereferenceable(8) %this) #19
  ret void
}